target datalayout = "e-m:e-p270:32:32-p271:32:32-p272:64:64-i64:64-i128:128-f80:128-n8:16:32:64-S128"
target triple = "x86_64-unknown-linux-gnu"

%"class.grpc_core::Timestamp" = type { i64 }
%struct.grpc_deadline_state = type { ptr, ptr, ptr, ptr, ptr, %struct.grpc_closure, ptr }
%struct.grpc_closure = type { %union.anon, ptr, ptr, %union.anon.0 }
%union.anon = type { ptr }
%union.anon.0 = type { i64 }
%"class.grpc_core::TimerState" = type { ptr, %struct.grpc_timer, %struct.grpc_closure }
%struct.grpc_timer = type { i64, i32, i8, ptr, ptr, ptr, %union.anon.66 }
%union.anon.66 = type { %"struct.grpc_event_engine::experimental::EventEngine::TaskHandle" }
%"struct.grpc_event_engine::experimental::EventEngine::TaskHandle" = type { [2 x i64] }
%"class.grpc_core::Arena" = type { %"struct.std::atomic.67", %"struct.std::atomic.67", i64, %"struct.std::atomic.69", %"struct.std::atomic.71", ptr }
%"struct.std::atomic.67" = type { %"struct.std::__atomic_base.68" }
%"struct.std::__atomic_base.68" = type { i64 }
%"struct.std::atomic.69" = type { %"struct.std::__atomic_base.70" }
%"struct.std::__atomic_base.70" = type { ptr }
%"struct.std::atomic.71" = type { %"struct.std::__atomic_base.72" }
%"struct.std::__atomic_base.72" = type { ptr }
%struct.grpc_call_stack = type { %struct.grpc_stream_refcount, i64 }
%struct.grpc_stream_refcount = type { %"class.grpc_core::RefCount", %struct.grpc_closure }
%"class.grpc_core::RefCount" = type { %"struct.std::atomic.73" }
%"struct.std::atomic.73" = type { %"struct.std::__atomic_base.74" }
%"struct.std::__atomic_base.74" = type { i64 }

@.str = private unnamed_addr constant [136 x i8] c"generated/home/dtcxzyw/WorkSpace/Projects/compilers/llvm-opt-benchmark/bench/grpc/grpc/src/core/ext/filters/deadline/deadline_filter.cc\00", align 1
@.str.6 = private unnamed_addr constant [39 x i8] c"deadline_state->timer_state == nullptr\00", align 1

; Function Attrs: mustprogress nounwind uwtable
define linkonce_odr void @_ZN9grpc_core8RefCount10RefNonZeroEv(ptr noundef nonnull align 8 dereferenceable(8) %this) #5 comdat align 2 {
entry:
  %this.addr.i = alloca ptr, align 8
  %__i.addr.i = alloca i64, align 8
  %__m.addr.i = alloca i32, align 4
  %.atomictmp.i = alloca i64, align 8
  %atomic-temp.i = alloca i64, align 8
  %this.addr = alloca ptr, align 8
  store ptr %this, ptr %this.addr, align 8
  %this1 = load ptr, ptr %this.addr, align 8
  %value_ = getelementptr inbounds %"class.grpc_core::RefCount", ptr %this1, i32 0, i32 0
  store ptr %value_, ptr %this.addr.i, align 8
  store i64 1, ptr %__i.addr.i, align 8
  store i32 0, ptr %__m.addr.i, align 4
  %this1.i = load ptr, ptr %this.addr.i, align 8
  %0 = load i32, ptr %__m.addr.i, align 4
  %1 = load i64, ptr %__i.addr.i, align 8
  store i64 %1, ptr %.atomictmp.i, align 8
  switch i32 %0, label %monotonic.i [
    i32 1, label %acquire.i
    i32 2, label %acquire.i
    i32 3, label %release.i
    i32 4, label %acqrel.i
    i32 5, label %seqcst.i
  ]

monotonic.i:                                      ; preds = %entry
  %2 = load i64, ptr %.atomictmp.i, align 8
  %3 = atomicrmw add ptr %this1.i, i64 %2 monotonic, align 8
  store i64 %3, ptr %atomic-temp.i, align 8
  br label %_ZNSt13__atomic_baseIlE9fetch_addElSt12memory_order.exit

acquire.i:                                        ; preds = %entry, %entry
  %4 = load i64, ptr %.atomictmp.i, align 8
  %5 = atomicrmw add ptr %this1.i, i64 %4 acquire, align 8
  store i64 %5, ptr %atomic-temp.i, align 8
  br label %_ZNSt13__atomic_baseIlE9fetch_addElSt12memory_order.exit

release.i:                                        ; preds = %entry
  %6 = load i64, ptr %.atomictmp.i, align 8
  %7 = atomicrmw add ptr %this1.i, i64 %6 release, align 8
  store i64 %7, ptr %atomic-temp.i, align 8
  br label %_ZNSt13__atomic_baseIlE9fetch_addElSt12memory_order.exit

acqrel.i:                                         ; preds = %entry
  %8 = load i64, ptr %.atomictmp.i, align 8
  %9 = atomicrmw add ptr %this1.i, i64 %8 acq_rel, align 8
  store i64 %9, ptr %atomic-temp.i, align 8
  br label %_ZNSt13__atomic_baseIlE9fetch_addElSt12memory_order.exit

seqcst.i:                                         ; preds = %entry
  %10 = load i64, ptr %.atomictmp.i, align 8
  %11 = atomicrmw add ptr %this1.i, i64 %10 seq_cst, align 8
  store i64 %11, ptr %atomic-temp.i, align 8
  br label %_ZNSt13__atomic_baseIlE9fetch_addElSt12memory_order.exit

_ZNSt13__atomic_baseIlE9fetch_addElSt12memory_order.exit: ; preds = %seqcst.i, %acqrel.i, %release.i, %acquire.i, %monotonic.i
  ret void
}

; Function Attrs: mustprogress nounwind uwtable
define linkonce_odr noundef ptr @_Z17grpc_closure_initP12grpc_closurePFvPvN4absl12lts_202308026StatusEES1_(ptr noundef %closure, ptr noundef %cb, ptr noundef %cb_arg) #5 comdat {
entry:
  %closure.addr = alloca ptr, align 8
  %cb.addr = alloca ptr, align 8
  %cb_arg.addr = alloca ptr, align 8
  store ptr %closure, ptr %closure.addr, align 8
  store ptr %cb, ptr %cb.addr, align 8
  store ptr %cb_arg, ptr %cb_arg.addr, align 8
  %0 = load ptr, ptr %cb.addr, align 8
  %1 = load ptr, ptr %closure.addr, align 8
  %cb1 = getelementptr inbounds %struct.grpc_closure, ptr %1, i32 0, i32 1
  store ptr %0, ptr %cb1, align 8
  %2 = load ptr, ptr %cb_arg.addr, align 8
  %3 = load ptr, ptr %closure.addr, align 8
  %cb_arg2 = getelementptr inbounds %struct.grpc_closure, ptr %3, i32 0, i32 2
  store ptr %2, ptr %cb_arg2, align 8
  %4 = load ptr, ptr %closure.addr, align 8
  %error_data = getelementptr inbounds %struct.grpc_closure, ptr %4, i32 0, i32 3
  store i64 0, ptr %error_data, align 8
  %5 = load ptr, ptr %closure.addr, align 8
  ret ptr %5
}

; Function Attrs: mustprogress uwtable
define linkonce_odr void @_Z15grpc_stream_refP20grpc_stream_refcount(ptr noundef %refcount) #4 comdat {
entry:
  %refcount.addr = alloca ptr, align 8
  store ptr %refcount, ptr %refcount.addr, align 8
  %0 = load ptr, ptr %refcount.addr, align 8
  %refs = getelementptr inbounds %struct.grpc_stream_refcount, ptr %0, i32 0, i32 0
  call void @_ZN9grpc_core8RefCount10RefNonZeroEv(ptr noundef nonnull align 8 dereferenceable(8) %refs)
  ret void
}

; Function Attrs: mustprogress uwtable
define linkonce_odr void @_ZN9grpc_core10TimerStateC2EP19grpc_deadline_stateNS_9TimestampE(ptr noundef nonnull align 8 dereferenceable(96) %this, ptr noundef %deadline_state, i64 %deadline.coerce) unnamed_addr #4 comdat align 2 {
entry:
  %deadline = alloca %"class.grpc_core::Timestamp", align 8
  %this.addr = alloca ptr, align 8
  %deadline_state.addr = alloca ptr, align 8
  %agg.tmp = alloca %"class.grpc_core::Timestamp", align 8
  %coerce.dive = getelementptr inbounds %"class.grpc_core::Timestamp", ptr %deadline, i32 0, i32 0
  store i64 %deadline.coerce, ptr %coerce.dive, align 8
  store ptr %this, ptr %this.addr, align 8
  store ptr %deadline_state, ptr %deadline_state.addr, align 8
  %this1 = load ptr, ptr %this.addr, align 8
  %deadline_state_ = getelementptr inbounds %"class.grpc_core::TimerState", ptr %this1, i32 0, i32 0
  %0 = load ptr, ptr %deadline_state.addr, align 8
  store ptr %0, ptr %deadline_state_, align 8
  br label %do.body

do.body:                                          ; preds = %entry
  %1 = load ptr, ptr %deadline_state.addr, align 8
  %call_stack = getelementptr inbounds %struct.grpc_deadline_state, ptr %1, i32 0, i32 1
  %2 = load ptr, ptr %call_stack, align 8
  %refcount = getelementptr inbounds %struct.grpc_call_stack, ptr %2, i32 0, i32 0
  call void @_Z15grpc_stream_refP20grpc_stream_refcount(ptr noundef %refcount)
  br label %do.end

do.end:                                           ; preds = %do.body
  %closure_2 = getelementptr inbounds %"class.grpc_core::TimerState", ptr %this1, i32 0, i32 2
  %call = call noundef ptr @_Z17grpc_closure_initP12grpc_closurePFvPvN4absl12lts_202308026StatusEES1_(ptr noundef %closure_2, ptr noundef @_ZN9grpc_core10TimerState13TimerCallbackEPvN4absl12lts_202308026StatusE, ptr noundef %this1)
  %timer_3 = getelementptr inbounds %"class.grpc_core::TimerState", ptr %this1, i32 0, i32 1
  call void @llvm.memcpy.p0.p0.i64(ptr align 8 %agg.tmp, ptr align 8 %deadline, i64 8, i1 false)
  %closure_4 = getelementptr inbounds %"class.grpc_core::TimerState", ptr %this1, i32 0, i32 2
  %coerce.dive5 = getelementptr inbounds %"class.grpc_core::Timestamp", ptr %agg.tmp, i32 0, i32 0
  %3 = load i64, ptr %coerce.dive5, align 8
  call void @_Z15grpc_timer_initP10grpc_timerN9grpc_core9TimestampEP12grpc_closure(ptr noundef %timer_3, i64 %3, ptr noundef %closure_4)
  ret void
}

; Function Attrs: mustprogress uwtable
define linkonce_odr void @_ZN9grpc_core9ConstructINS_10TimerStateEJRP19grpc_deadline_stateRNS_9TimestampEEEEvPT_DpOT0_(ptr noundef %p, ptr noundef nonnull align 8 dereferenceable(8) %args, ptr noundef nonnull align 8 dereferenceable(8) %args1) #4 comdat {
entry:
  %p.addr = alloca ptr, align 8
  %args.addr = alloca ptr, align 8
  %args.addr2 = alloca ptr, align 8
  %agg.tmp = alloca %"class.grpc_core::Timestamp", align 8
  store ptr %p, ptr %p.addr, align 8
  store ptr %args, ptr %args.addr, align 8
  store ptr %args1, ptr %args.addr2, align 8
  %0 = load ptr, ptr %p.addr, align 8
  %1 = load ptr, ptr %args.addr, align 8
  %2 = load ptr, ptr %1, align 8
  %3 = load ptr, ptr %args.addr2, align 8
  call void @llvm.memcpy.p0.p0.i64(ptr align 8 %agg.tmp, ptr align 8 %3, i64 8, i1 false)
  %coerce.dive = getelementptr inbounds %"class.grpc_core::Timestamp", ptr %agg.tmp, i32 0, i32 0
  %4 = load i64, ptr %coerce.dive, align 8
  call void @_ZN9grpc_core10TimerStateC2EP19grpc_deadline_stateNS_9TimestampE(ptr noundef nonnull align 8 dereferenceable(96) %0, ptr noundef %2, i64 %4)
  ret void
}

; Function Attrs: mustprogress uwtable
define linkonce_odr noundef ptr @_ZN9grpc_core5Arena5AllocEm(ptr noundef nonnull align 8 dereferenceable(48) %this, i64 noundef %size) #4 comdat align 2 {
entry:
  %this.addr.i = alloca ptr, align 8
  %__i.addr.i = alloca i64, align 8
  %__m.addr.i = alloca i32, align 4
  %.atomictmp.i = alloca i64, align 8
  %atomic-temp.i = alloca i64, align 8
  %retval = alloca ptr, align 8
  %this.addr = alloca ptr, align 8
  %size.addr = alloca i64, align 8
  %begin = alloca i64, align 8
  store ptr %this, ptr %this.addr, align 8
  store i64 %size, ptr %size.addr, align 8
  %this1 = load ptr, ptr %this.addr, align 8
  %0 = load i64, ptr %size.addr, align 8
  %add = add i64 %0, 16
  %sub = sub i64 %add, 1
  %and = and i64 %sub, 4294967280
  store i64 %and, ptr %size.addr, align 8
  %total_used_ = getelementptr inbounds %"class.grpc_core::Arena", ptr %this1, i32 0, i32 0
  %1 = load i64, ptr %size.addr, align 8
  store ptr %total_used_, ptr %this.addr.i, align 8
  store i64 %1, ptr %__i.addr.i, align 8
  store i32 0, ptr %__m.addr.i, align 4
  %this1.i = load ptr, ptr %this.addr.i, align 8
  %2 = load i32, ptr %__m.addr.i, align 4
  %3 = load i64, ptr %__i.addr.i, align 8
  store i64 %3, ptr %.atomictmp.i, align 8
  switch i32 %2, label %monotonic.i [
    i32 1, label %acquire.i
    i32 2, label %acquire.i
    i32 3, label %release.i
    i32 4, label %acqrel.i
    i32 5, label %seqcst.i
  ]

monotonic.i:                                      ; preds = %entry
  %4 = load i64, ptr %.atomictmp.i, align 8
  %5 = atomicrmw add ptr %this1.i, i64 %4 monotonic, align 8
  store i64 %5, ptr %atomic-temp.i, align 8
  br label %_ZNSt13__atomic_baseImE9fetch_addEmSt12memory_order.exit

acquire.i:                                        ; preds = %entry, %entry
  %6 = load i64, ptr %.atomictmp.i, align 8
  %7 = atomicrmw add ptr %this1.i, i64 %6 acquire, align 8
  store i64 %7, ptr %atomic-temp.i, align 8
  br label %_ZNSt13__atomic_baseImE9fetch_addEmSt12memory_order.exit

release.i:                                        ; preds = %entry
  %8 = load i64, ptr %.atomictmp.i, align 8
  %9 = atomicrmw add ptr %this1.i, i64 %8 release, align 8
  store i64 %9, ptr %atomic-temp.i, align 8
  br label %_ZNSt13__atomic_baseImE9fetch_addEmSt12memory_order.exit

acqrel.i:                                         ; preds = %entry
  %10 = load i64, ptr %.atomictmp.i, align 8
  %11 = atomicrmw add ptr %this1.i, i64 %10 acq_rel, align 8
  store i64 %11, ptr %atomic-temp.i, align 8
  br label %_ZNSt13__atomic_baseImE9fetch_addEmSt12memory_order.exit

seqcst.i:                                         ; preds = %entry
  %12 = load i64, ptr %.atomictmp.i, align 8
  %13 = atomicrmw add ptr %this1.i, i64 %12 seq_cst, align 8
  store i64 %13, ptr %atomic-temp.i, align 8
  br label %_ZNSt13__atomic_baseImE9fetch_addEmSt12memory_order.exit

_ZNSt13__atomic_baseImE9fetch_addEmSt12memory_order.exit: ; preds = %seqcst.i, %acqrel.i, %release.i, %acquire.i, %monotonic.i
  %14 = load i64, ptr %atomic-temp.i, align 8
  store i64 %14, ptr %begin, align 8
  %15 = load i64, ptr %begin, align 8
  %16 = load i64, ptr %size.addr, align 8
  %add2 = add i64 %15, %16
  %initial_zone_size_ = getelementptr inbounds %"class.grpc_core::Arena", ptr %this1, i32 0, i32 2
  %17 = load i64, ptr %initial_zone_size_, align 8
  %cmp = icmp ule i64 %add2, %17
  br i1 %cmp, label %if.then, label %if.else

if.then:                                          ; preds = %_ZNSt13__atomic_baseImE9fetch_addEmSt12memory_order.exit
  %add.ptr = getelementptr inbounds i8, ptr %this1, i64 48
  %18 = load i64, ptr %begin, align 8
  %add.ptr3 = getelementptr inbounds i8, ptr %add.ptr, i64 %18
  store ptr %add.ptr3, ptr %retval, align 8
  br label %return

if.else:                                          ; preds = %_ZNSt13__atomic_baseImE9fetch_addEmSt12memory_order.exit
  %19 = load i64, ptr %size.addr, align 8
  %call4 = call noundef ptr @_ZN9grpc_core5Arena9AllocZoneEm(ptr noundef nonnull align 8 dereferenceable(48) %this1, i64 noundef %19)
  store ptr %call4, ptr %retval, align 8
  br label %return

return:                                           ; preds = %if.else, %if.then
  %20 = load ptr, ptr %retval, align 8
  ret ptr %20
}

; Function Attrs: mustprogress nounwind uwtable
define linkonce_odr void @_ZN9grpc_core9TimestampC2El(ptr noundef nonnull align 8 dereferenceable(8) %this, i64 noundef %millis) unnamed_addr #5 comdat align 2 {
entry:
  %this.addr = alloca ptr, align 8
  %millis.addr = alloca i64, align 8
  store ptr %this, ptr %this.addr, align 8
  store i64 %millis, ptr %millis.addr, align 8
  %this1 = load ptr, ptr %this.addr, align 8
  %millis_ = getelementptr inbounds %"class.grpc_core::Timestamp", ptr %this1, i32 0, i32 0
  %0 = load i64, ptr %millis.addr, align 8
  store i64 %0, ptr %millis_, align 8
  ret void
}

; Function Attrs: mustprogress nounwind uwtable
define linkonce_odr noundef i64 @_ZNSt14numeric_limitsIlE3maxEv() #5 comdat align 2 {
entry:
  ret i64 9223372036854775807
}

; Function Attrs: mustprogress uwtable
define linkonce_odr noundef ptr @_ZN9grpc_core5Arena3NewINS_10TimerStateEJRP19grpc_deadline_stateRNS_9TimestampEEEEPT_DpOT0_(ptr noundef nonnull align 8 dereferenceable(48) %this, ptr noundef nonnull align 8 dereferenceable(8) %args, ptr noundef nonnull align 8 dereferenceable(8) %args1) #4 comdat align 2 {
entry:
  %this.addr = alloca ptr, align 8
  %args.addr = alloca ptr, align 8
  %args.addr2 = alloca ptr, align 8
  %t = alloca ptr, align 8
  store ptr %this, ptr %this.addr, align 8
  store ptr %args, ptr %args.addr, align 8
  store ptr %args1, ptr %args.addr2, align 8
  %this3 = load ptr, ptr %this.addr, align 8
  %call = call noundef ptr @_ZN9grpc_core5Arena5AllocEm(ptr noundef nonnull align 8 dereferenceable(48) %this3, i64 noundef 96)
  store ptr %call, ptr %t, align 8
  %0 = load ptr, ptr %t, align 8
  %1 = load ptr, ptr %args.addr, align 8
  %2 = load ptr, ptr %args.addr2, align 8
  call void @_ZN9grpc_core9ConstructINS_10TimerStateEJRP19grpc_deadline_stateRNS_9TimestampEEEEvPT_DpOT0_(ptr noundef %0, ptr noundef nonnull align 8 dereferenceable(8) %1, ptr noundef nonnull align 8 dereferenceable(8) %2)
  %3 = load ptr, ptr %t, align 8
  ret ptr %3
}

; Function Attrs: mustprogress nounwind uwtable
define linkonce_odr noundef zeroext i1 @_ZNK9grpc_core9TimestampeqES0_(ptr noundef nonnull align 8 dereferenceable(8) %this, i64 %other.coerce) #5 comdat align 2 {
entry:
  %other = alloca %"class.grpc_core::Timestamp", align 8
  %this.addr = alloca ptr, align 8
  %coerce.dive = getelementptr inbounds %"class.grpc_core::Timestamp", ptr %other, i32 0, i32 0
  store i64 %other.coerce, ptr %coerce.dive, align 8
  store ptr %this, ptr %this.addr, align 8
  %this1 = load ptr, ptr %this.addr, align 8
  %millis_ = getelementptr inbounds %"class.grpc_core::Timestamp", ptr %this1, i32 0, i32 0
  %0 = load i64, ptr %millis_, align 8
  %millis_2 = getelementptr inbounds %"class.grpc_core::Timestamp", ptr %other, i32 0, i32 0
  %1 = load i64, ptr %millis_2, align 8
  %cmp = icmp eq i64 %0, %1
  ret i1 %cmp
}

; Function Attrs: mustprogress uwtable
define linkonce_odr i64 @_ZN9grpc_core9Timestamp9InfFutureEv() #4 comdat align 2 {
entry:
  %retval = alloca %"class.grpc_core::Timestamp", align 8
  %call = call noundef i64 @_ZNSt14numeric_limitsIlE3maxEv() #3
  call void @_ZN9grpc_core9TimestampC2El(ptr noundef nonnull align 8 dereferenceable(8) %retval, i64 noundef %call)
  %coerce.dive = getelementptr inbounds %"class.grpc_core::Timestamp", ptr %retval, i32 0, i32 0
  %0 = load i64, ptr %coerce.dive, align 8
  ret i64 %0
}

; Function Attrs: mustprogress uwtable
define linkonce_odr void @_ZN9grpc_core10TimerState6CancelEv(ptr noundef nonnull align 8 dereferenceable(96) %this) #4 comdat align 2 {
entry:
  %this.addr = alloca ptr, align 8
  store ptr %this, ptr %this.addr, align 8
  %this1 = load ptr, ptr %this.addr, align 8
  %timer_ = getelementptr inbounds %"class.grpc_core::TimerState", ptr %this1, i32 0, i32 1
  call void @_Z17grpc_timer_cancelP10grpc_timer(ptr noundef %timer_)
  ret void
}

; Function Attrs: mustprogress uwtable
define internal void @_ZL21start_timer_if_neededP19grpc_deadline_stateN9grpc_core9TimestampE(ptr noundef %deadline_state, i64 %deadline.coerce) #4 {
entry:
  %deadline = alloca %"class.grpc_core::Timestamp", align 8
  %deadline_state.addr = alloca ptr, align 8
  %agg.tmp = alloca %"class.grpc_core::Timestamp", align 8
  %coerce.dive = getelementptr inbounds %"class.grpc_core::Timestamp", ptr %deadline, i32 0, i32 0
  store i64 %deadline.coerce, ptr %coerce.dive, align 8
  store ptr %deadline_state, ptr %deadline_state.addr, align 8
  %call = call i64 @_ZN9grpc_core9Timestamp9InfFutureEv()
  %coerce.dive1 = getelementptr inbounds %"class.grpc_core::Timestamp", ptr %agg.tmp, i32 0, i32 0
  store i64 %call, ptr %coerce.dive1, align 8
  %coerce.dive2 = getelementptr inbounds %"class.grpc_core::Timestamp", ptr %agg.tmp, i32 0, i32 0
  %0 = load i64, ptr %coerce.dive2, align 8
  %call3 = call noundef zeroext i1 @_ZNK9grpc_core9TimestampeqES0_(ptr noundef nonnull align 8 dereferenceable(8) %deadline, i64 %0)
  br i1 %call3, label %if.then, label %if.end

if.then:                                          ; preds = %entry
  br label %return

if.end:                                           ; preds = %entry
  br label %do.body

do.body:                                          ; preds = %if.end
  %1 = load ptr, ptr %deadline_state.addr, align 8
  %timer_state = getelementptr inbounds %struct.grpc_deadline_state, ptr %1, i32 0, i32 4
  %2 = load ptr, ptr %timer_state, align 8
  %cmp = icmp eq ptr %2, null
  %lnot = xor i1 %cmp, true
  br i1 %lnot, label %if.then4, label %if.end5

if.then4:                                         ; preds = %do.body
  call void @gpr_assertion_failed(ptr noundef @.str, i32 noundef 126, ptr noundef @.str.6) #18
  unreachable

if.end5:                                          ; preds = %do.body
  br label %do.end

do.end:                                           ; preds = %if.end5
  %3 = load ptr, ptr %deadline_state.addr, align 8
  %arena = getelementptr inbounds %struct.grpc_deadline_state, ptr %3, i32 0, i32 3
  %4 = load ptr, ptr %arena, align 8
  %call6 = call noundef ptr @_ZN9grpc_core5Arena3NewINS_10TimerStateEJRP19grpc_deadline_stateRNS_9TimestampEEEEPT_DpOT0_(ptr noundef nonnull align 8 dereferenceable(48) %4, ptr noundef nonnull align 8 dereferenceable(8) %deadline_state.addr, ptr noundef nonnull align 8 dereferenceable(8) %deadline)
  %5 = load ptr, ptr %deadline_state.addr, align 8
  %timer_state7 = getelementptr inbounds %struct.grpc_deadline_state, ptr %5, i32 0, i32 4
  store ptr %call6, ptr %timer_state7, align 8
  br label %return

return:                                           ; preds = %do.end, %if.then
  ret void
}

; Function Attrs: mustprogress uwtable
define internal void @_ZL22cancel_timer_if_neededP19grpc_deadline_state(ptr noundef %deadline_state) #4 {
entry:
  %deadline_state.addr = alloca ptr, align 8
  store ptr %deadline_state, ptr %deadline_state.addr, align 8
  %0 = load ptr, ptr %deadline_state.addr, align 8
  %timer_state = getelementptr inbounds %struct.grpc_deadline_state, ptr %0, i32 0, i32 4
  %1 = load ptr, ptr %timer_state, align 8
  %cmp = icmp ne ptr %1, null
  br i1 %cmp, label %if.then, label %if.end

if.then:                                          ; preds = %entry
  %2 = load ptr, ptr %deadline_state.addr, align 8
  %timer_state1 = getelementptr inbounds %struct.grpc_deadline_state, ptr %2, i32 0, i32 4
  %3 = load ptr, ptr %timer_state1, align 8
  call void @_ZN9grpc_core10TimerState6CancelEv(ptr noundef nonnull align 8 dereferenceable(96) %3)
  %4 = load ptr, ptr %deadline_state.addr, align 8
  %timer_state2 = getelementptr inbounds %struct.grpc_deadline_state, ptr %4, i32 0, i32 4
  store ptr null, ptr %timer_state2, align 8
  br label %if.end

if.end:                                           ; preds = %if.then, %entry
  ret void
}

; Function Attrs: mustprogress uwtable
define void @_Z25grpc_deadline_state_resetP19grpc_deadline_stateN9grpc_core9TimestampE(ptr noundef %deadline_state, i64 %new_deadline.coerce) #4 {
entry:
  %new_deadline = alloca %"class.grpc_core::Timestamp", align 8
  %deadline_state.addr = alloca ptr, align 8
  %agg.tmp = alloca %"class.grpc_core::Timestamp", align 8
  %coerce.dive = getelementptr inbounds %"class.grpc_core::Timestamp", ptr %new_deadline, i32 0, i32 0
  store i64 %new_deadline.coerce, ptr %coerce.dive, align 8
  store ptr %deadline_state, ptr %deadline_state.addr, align 8
  %0 = load ptr, ptr %deadline_state.addr, align 8
  call void @_ZL22cancel_timer_if_neededP19grpc_deadline_state(ptr noundef %0)
  %1 = load ptr, ptr %deadline_state.addr, align 8
  call void @llvm.memcpy.p0.p0.i64(ptr align 8 %agg.tmp, ptr align 8 %new_deadline, i64 8, i1 false)
  %coerce.dive1 = getelementptr inbounds %"class.grpc_core::Timestamp", ptr %agg.tmp, i32 0, i32 0
  %2 = load i64, ptr %coerce.dive1, align 8
  call void @_ZL21start_timer_if_neededP19grpc_deadline_stateN9grpc_core9TimestampE(ptr noundef %1, i64 %2)
  ret void
}