; Function Attrs: mustprogress uwtable
define void @_Z25grpc_deadline_state_resetP19grpc_deadline_stateN9grpc_core9TimestampE(ptr noundef %deadline_state, i64 %new_deadline.coerce) local_unnamed_addr #3 {
entry:
  %timer_state.i = getelementptr inbounds i8, ptr %deadline_state, i64 32
  %0 = load ptr, ptr %timer_state.i, align 8
  %cmp.not.i = icmp eq ptr %0, null
  br i1 %cmp.not.i, label %_ZL22cancel_timer_if_neededP19grpc_deadline_state.exit, label %if.then.i

if.then.i:                                        ; preds = %entry
  %timer_.i.i = getelementptr inbounds i8, ptr %0, i64 8
  tail call void @_Z17grpc_timer_cancelP10grpc_timer(ptr noundef nonnull %timer_.i.i)
  store ptr null, ptr %timer_state.i, align 8
  br label %_ZL22cancel_timer_if_neededP19grpc_deadline_state.exit

_ZL22cancel_timer_if_neededP19grpc_deadline_state.exit: ; preds = %entry, %if.then.i
  %cmp.i.i = icmp eq i64 %new_deadline.coerce, 9223372036854775807
  br i1 %cmp.i.i, label %_ZL21start_timer_if_neededP19grpc_deadline_stateN9grpc_core9TimestampE.exit, label %do.end.i

do.end.i:                                         ; preds = %_ZL22cancel_timer_if_neededP19grpc_deadline_state.exit
  %arena.i = getelementptr inbounds i8, ptr %deadline_state, i64 24
  %1 = load ptr, ptr %arena.i, align 8
  %2 = atomicrmw add ptr %1, i64 96 monotonic, align 8
  %add2.i.i.i = add i64 %2, 96
  %initial_zone_size_.i.i.i = getelementptr inbounds i8, ptr %1, i64 16
  %3 = load i64, ptr %initial_zone_size_.i.i.i, align 8
  %cmp.not.i.i.i = icmp ugt i64 %add2.i.i.i, %3
  br i1 %cmp.not.i.i.i, label %if.else.i.i.i, label %if.then.i.i.i

if.then.i.i.i:                                    ; preds = %do.end.i
  %add.ptr.i.i.i = getelementptr inbounds i8, ptr %1, i64 48
  %add.ptr3.i.i.i = getelementptr inbounds i8, ptr %add.ptr.i.i.i, i64 %2
  br label %_ZN9grpc_core5Arena3NewINS_10TimerStateEJRP19grpc_deadline_stateRNS_9TimestampEEEEPT_DpOT0_.exit.i

if.else.i.i.i:                                    ; preds = %do.end.i
  %call4.i.i.i = tail call noundef ptr @_ZN9grpc_core5Arena9AllocZoneEm(ptr noundef nonnull align 8 dereferenceable(48) %1, i64 noundef 96)
  br label %_ZN9grpc_core5Arena3NewINS_10TimerStateEJRP19grpc_deadline_stateRNS_9TimestampEEEEPT_DpOT0_.exit.i

_ZN9grpc_core5Arena3NewINS_10TimerStateEJRP19grpc_deadline_stateRNS_9TimestampEEEEPT_DpOT0_.exit.i: ; preds = %if.else.i.i.i, %if.then.i.i.i
  %retval.0.i.i.i = phi ptr [ %add.ptr3.i.i.i, %if.then.i.i.i ], [ %call4.i.i.i, %if.else.i.i.i ]
  store ptr %deadline_state, ptr %retval.0.i.i.i, align 8
  %call_stack.i.i.i.i = getelementptr inbounds i8, ptr %deadline_state, i64 8
  %4 = load ptr, ptr %call_stack.i.i.i.i, align 8
  %5 = atomicrmw add ptr %4, i64 1 monotonic, align 8
  %closure_2.i.i.i.i = getelementptr inbounds i8, ptr %retval.0.i.i.i, i64 64
  %cb1.i.i.i.i.i = getelementptr inbounds i8, ptr %retval.0.i.i.i, i64 72
  store ptr @_ZN9grpc_core10TimerState13TimerCallbackEPvN4absl12lts_202308026StatusE, ptr %cb1.i.i.i.i.i, align 8
  %cb_arg2.i.i.i.i.i = getelementptr inbounds i8, ptr %retval.0.i.i.i, i64 80
  store ptr %retval.0.i.i.i, ptr %cb_arg2.i.i.i.i.i, align 8
  %error_data.i.i.i.i.i = getelementptr inbounds i8, ptr %retval.0.i.i.i, i64 88
  store i64 0, ptr %error_data.i.i.i.i.i, align 8
  %timer_3.i.i.i.i = getelementptr inbounds i8, ptr %retval.0.i.i.i, i64 8
  tail call void @_Z15grpc_timer_initP10grpc_timerN9grpc_core9TimestampEP12grpc_closure(ptr noundef nonnull %timer_3.i.i.i.i, i64 %new_deadline.coerce, ptr noundef nonnull %closure_2.i.i.i.i)
  store ptr %retval.0.i.i.i, ptr %timer_state.i, align 8
  br label %_ZL21start_timer_if_neededP19grpc_deadline_stateN9grpc_core9TimestampE.exit

_ZL21start_timer_if_neededP19grpc_deadline_stateN9grpc_core9TimestampE.exit: ; preds = %_ZL22cancel_timer_if_neededP19grpc_deadline_state.exit, %_ZN9grpc_core5Arena3NewINS_10TimerStateEJRP19grpc_deadline_stateRNS_9TimestampEEEEPT_DpOT0_.exit.i
  ret void
}